ccollections
defaultdict
p1
(cpymarkovchain.MarkovChain
_one_dict
p2
tRp3
(S'This'
p4
tp5
g1
(cpymarkovchain.MarkovChain
_one
p6
tRp7
S'is'
p8
F1
ss(S'of'
p9
S'Text'
p10
tp11
g1
(g6
tRp12
S''
F1
ss(g10
tp13
g1
(g6
tRp14
S''
F1
ss(S'database'
p15
tp16
g1
(g6
tRp17
S'though'
p18
F1
ss(g8
S'a'
tp19
g1
(g6
tRp20
S'string'
p21
F1
ss(S'It'
p22
S"won't"
p23
tp24
g1
(g6
tRp25
S'generate'
p26
F1
ss(g26
S'an'
p27
tp28
g1
(g6
tRp29
S'interesting'
p30
F1
ss(g27
tp31
g1
(g6
tRp32
g30
F1
ss(g26
tp33
g1
(g6
tRp34
g27
F1
ss(g15
g18
tp35
g1
(g6
tRp36
S''
F1
ss(g30
tp37
g1
(g6
tRp38
g15
F1
ss(g23
tp39
g1
(g6
tRp40
g26
F1
ss(S'a'
tp41
g1
(g6
tRp42
g21
F1
ss(g23
g26
tp43
g1
(g6
tRp44
g27
F1
ss(g8
tp45
g1
(g6
tRp46
S'a'
F1
ss(g27
g30
tp47
g1
(g6
tRp48
g15
F1
ss(g21
g9
tp49
g1
(g6
tRp50
g10
F1
ss(S''
tp51
g1
(g6
tRp52
S''
F0
sg4
F0.5
sg22
F0.5
ss(g4
g8
tp53
g1
(g6
tRp54
S'a'
F1
ss(g9
tp55
g1
(g6
tRp56
g10
F1
ss(g21
tp57
g1
(g6
tRp58
g9
F1
ss(S'a'
g21
tp59
g1
(g6
tRp60
g9
F1
ss(g18
tp61
g1
(g6
tRp62
S''
F1
ss(g22
tp63
g1
(g6
tRp64
g23
F1
ss(g30
g15
tp65
g1
(g6
tRp66
g18
F1
ss.